target datalayout = "e-m:e-p270:32:32-p271:32:32-p272:64:64-i64:64-i128:128-f80:128-n8:16:32:64-S128"
target triple = "x86_64-pc-linux-gnu"

%"class.icu_77::CharacterIterator" = type { %"class.icu_77::ForwardCharacterIterator", i32, i32, i32, i32 }
%"class.icu_77::ForwardCharacterIterator" = type { %"class.icu_77::UObject" }
%"class.icu_77::UObject" = type { ptr }

; Function Attrs: mustprogress nounwind uwtable
define linkonce_odr noundef nonnull align 8 dereferenceable(8) ptr @_ZN6icu_7724ForwardCharacterIteratoraSERKS0_(ptr noundef nonnull align 8 dereferenceable(8) %0, ptr noundef nonnull align 8 dereferenceable(8) %1) #1 comdat align 2 {
  %3 = alloca ptr, align 8
  %4 = alloca ptr, align 8
  store ptr %0, ptr %3, align 8, !tbaa !3
  store ptr %1, ptr %4, align 8, !tbaa !3
  %5 = load ptr, ptr %3, align 8
  ret ptr %5
}

; Function Attrs: mustprogress uwtable
define noundef nonnull align 8 dereferenceable(24) ptr @_ZN6icu_7717CharacterIteratoraSERKS0_(ptr noundef nonnull align 8 dereferenceable(24) %0, ptr noundef nonnull align 8 dereferenceable(24) %1) #5 align 2 {
  %3 = alloca ptr, align 8
  %4 = alloca ptr, align 8
  store ptr %0, ptr %3, align 8, !tbaa !12
  store ptr %1, ptr %4, align 8, !tbaa !12
  %5 = load ptr, ptr %3, align 8
  %6 = load ptr, ptr %4, align 8, !tbaa !12
  %7 = call noundef nonnull align 8 dereferenceable(8) ptr @_ZN6icu_7724ForwardCharacterIteratoraSERKS0_(ptr noundef nonnull align 8 dereferenceable(8) %5, ptr noundef nonnull align 8 dereferenceable(8) %6)
  %8 = load ptr, ptr %4, align 8, !tbaa !12
  %9 = getelementptr inbounds nuw %"class.icu_77::CharacterIterator", ptr %8, i32 0, i32 1
  %10 = load i32, ptr %9, align 8, !tbaa !14
  %11 = getelementptr inbounds nuw %"class.icu_77::CharacterIterator", ptr %5, i32 0, i32 1
  store i32 %10, ptr %11, align 8, !tbaa !14
  %12 = load ptr, ptr %4, align 8, !tbaa !12
  %13 = getelementptr inbounds nuw %"class.icu_77::CharacterIterator", ptr %12, i32 0, i32 2
  %14 = load i32, ptr %13, align 4, !tbaa !19
  %15 = getelementptr inbounds nuw %"class.icu_77::CharacterIterator", ptr %5, i32 0, i32 2
  store i32 %14, ptr %15, align 4, !tbaa !19
  %16 = load ptr, ptr %4, align 8, !tbaa !12
  %17 = getelementptr inbounds nuw %"class.icu_77::CharacterIterator", ptr %16, i32 0, i32 3
  %18 = load i32, ptr %17, align 8, !tbaa !20
  %19 = getelementptr inbounds nuw %"class.icu_77::CharacterIterator", ptr %5, i32 0, i32 3
  store i32 %18, ptr %19, align 8, !tbaa !20
  %20 = load ptr, ptr %4, align 8, !tbaa !12
  %21 = getelementptr inbounds nuw %"class.icu_77::CharacterIterator", ptr %20, i32 0, i32 4
  %22 = load i32, ptr %21, align 4, !tbaa !21
  %23 = getelementptr inbounds nuw %"class.icu_77::CharacterIterator", ptr %5, i32 0, i32 4
  store i32 %22, ptr %23, align 4, !tbaa !21
  ret ptr %5
}